(lp0
I1
aI-1
aI1
aI-1
aI1
aI1
aI-1
aI-1
aI-1
aI-1
aI-1
aI-1
aI-1
aI-1
aI1
aI1
aI-1
aI1
aI-1
aI-1
aI-1
aI-1
aI1
aI-1
aI-1
aI1
aI1
aI1
aI1
aI1
aI1
aI-1
aI-1
aI1
aI-1
aI-1
aI-1
aI-1
aI-1
aI1
aI1
aI-1
aI1
aI-1
aI1
aI1
aI1
aI-1
aI-1
aI-1
aI1
aI1
aI1
aI1
aI-1
aI-1
aI1
aI-1
aI-1
aI-1
aI-1
aI-1
aI1
aI-1
aI-1
aI1
aI-1
aI-1
aI-1
aI-1
aI1
aI1
aI1
aI-1
aI-1
aI1
aI1
aI1
aI-1
aI1
aI-1
aI-1
aI-1
aI1
aI-1
aI1
aI-1
aI-1
aI1
aI-1
aI-1
aI1
aI-1
aI1
aI1
aI1
aI1
aI1
aI-1
aI1
aI1
aI-1
aI1
aI1
aI1
aI1
aI1
aI-1
aI-1
aI-1
aI1
aI-1
aI-1
aI-1
aI1
aI-1
aI1
aI-1
aI-1
aI-1
aI1
aI1
aI-1
aI1
aI1
aI-1
aI1
aI1
aI-1
aI-1
aI-1
aI-1
aI1
aI1
aI-1
aI-1
aI1
aI1
aI-1
aI1
aI1
aI1
aI1
aI-1
aI-1
aI-1
aI-1
aI1
aI-1
aI-1
aI-1
aI-1
aI-1
aI-1
aI-1
aI1
aI-1
aI-1
aI-1
aI1
aI-1
aI1
aI-1
aI1
aI-1
aI-1
aI-1
aI1
aI1
aI-1
aI-1
aI-1
aI-1
aI-1
aI-1
aI-1
aI1
aI-1
aI-1
aI-1
aI-1
aI-1
aI-1
aI-1
aI1
aI1
aI-1
aI-1
aI1
aI1
aI1
aI-1
aI1
aI-1
aI1
aI1
aI-1
aI-1
aI1
aI-1
aI1
aI1
aI1
aI1
aI1
aI-1
aI-1
aI-1
aI-1
aI-1
aI1
aI1
aI-1
aI1
aI1
aI1
aI-1
aI1
aI1
aI-1
aI1
aI-1
aI-1
aI1
aI-1
aI1
aI-1
aI-1
aI-1
aI1
aI1
aI-1
aI-1
aI-1
aI1
aI-1
aI-1
aI1
aI1
aI-1
aI-1
aI1
aI1
aI1
aI-1
aI-1
aI-1
aI1
aI1
aI1
aI-1
aI1
aI1
aI-1
aI1
aI-1
aI1
aI1
aI1
aI1
aI-1
aI1
aI-1
aI-1
aI-1
aI-1
aI-1
aI-1
aI-1
aI-1
aI1
aI1
aI1
aI-1
aI1
aI1
aI-1
aI-1
aI1
aI-1
aI-1
aI1
aI1
aI1
aI1
aI1
aI1
aI1
aI1
aI-1
aI1
aI1
aI-1
aI-1
a.